; Function Attrs: mustprogress uwtable
define internal void @_ZNK5faiss12_GLOBAL__N_114IVFSQScannerIPINS0_10DCTemplateINS0_17QuantizerTemplateINS0_9Codec4bitELb1ELi1EEENS0_12SimilarityIPILi1EEELi1EEELi0EE16scan_codes_rangeEmPKhPKlfRNS_16RangeQueryResultE(ptr nocapture noundef nonnull readonly align 8 dereferenceable(104) %0, i64 noundef %1, ptr nocapture noundef readonly %2, ptr nocapture noundef readonly %3, float noundef %4, ptr noundef nonnull align 8 dereferenceable(24) %5) unnamed_addr #0 align 2 {
  %.not18 = icmp eq i64 %1, 0
  br i1 %.not18, label %._crit_edge, label %.lr.ph

.lr.ph:                                           ; preds = %6
  %7 = getelementptr inbounds i8, ptr %0, i64 100
  %8 = getelementptr inbounds i8, ptr %0, i64 80
  %9 = getelementptr inbounds i8, ptr %0, i64 64
  %10 = getelementptr inbounds i8, ptr %0, i64 88
  %11 = getelementptr inbounds i8, ptr %0, i64 92
  %12 = getelementptr inbounds i8, ptr %0, i64 17
  %13 = getelementptr inbounds i8, ptr %0, i64 8
  %14 = getelementptr inbounds i8, ptr %0, i64 32
  br label %15

15:                                               ; preds = %.lr.ph, %54
  %.017 = phi ptr [ %2, %.lr.ph ], [ %57, %54 ]
  %.01315 = phi i64 [ 0, %.lr.ph ], [ %55, %54 ]
  %16 = load float, ptr %7, align 4
  %17 = load i64, ptr %8, align 8
  %.not.i.i = icmp eq i64 %17, 0
  br i1 %.not.i.i, label %_ZNK5faiss12_GLOBAL__N_110DCTemplateINS0_17QuantizerTemplateINS0_9Codec4bitELb1ELi1EEENS0_12SimilarityIPILi1EEELi1EE13query_to_codeEPKh.exit, label %.lr.ph.i.i

.lr.ph.i.i:                                       ; preds = %15
  %18 = load ptr, ptr %9, align 8
  %19 = load float, ptr %10, align 8
  %20 = load float, ptr %11, align 4
  br label %21

21:                                               ; preds = %21, %.lr.ph.i.i
  %.020.i.i = phi i64 [ 0, %.lr.ph.i.i ], [ %39, %21 ]
  %.sroa.5.019.i.i = phi float [ 0.000000e+00, %.lr.ph.i.i ], [ %38, %21 ]
  %.sroa.2.018.i.i = phi ptr [ %18, %.lr.ph.i.i ], [ %36, %21 ]
  %22 = trunc i64 %.020.i.i to i32
  %23 = sdiv i32 %22, 2
  %24 = sext i32 %23 to i64
  %25 = getelementptr inbounds i8, ptr %.017, i64 %24
  %26 = load i8, ptr %25, align 1
  %27 = zext i8 %26 to i32
  %28 = shl i32 %22, 2
  %29 = and i32 %28, 4
  %30 = lshr i32 %27, %29
  %31 = and i32 %30, 15
  %32 = sitofp i32 %31 to float
  %33 = fadd float %32, 5.000000e-01
  %34 = fdiv float %33, 1.500000e+01
  %35 = tail call noundef float @llvm.fmuladd.f32(float %34, float %20, float %19)
  %36 = getelementptr inbounds i8, ptr %.sroa.2.018.i.i, i64 4
  %37 = load float, ptr %.sroa.2.018.i.i, align 4
  %38 = tail call float @llvm.fmuladd.f32(float %37, float %35, float %.sroa.5.019.i.i)
  %39 = add nuw i64 %.020.i.i, 1
  %exitcond.not.i.i = icmp eq i64 %39, %17
  br i1 %exitcond.not.i.i, label %_ZNK5faiss12_GLOBAL__N_110DCTemplateINS0_17QuantizerTemplateINS0_9Codec4bitELb1ELi1EEENS0_12SimilarityIPILi1EEELi1EE13query_to_codeEPKh.exit, label %21, !llvm.loop !63

_ZNK5faiss12_GLOBAL__N_110DCTemplateINS0_17QuantizerTemplateINS0_9Codec4bitELb1ELi1EEENS0_12SimilarityIPILi1EEELi1EE13query_to_codeEPKh.exit: ; preds = %21, %15
  %.sroa.5.0.lcssa.i.i = phi float [ 0.000000e+00, %15 ], [ %38, %21 ]
  %40 = fadd float %16, %.sroa.5.0.lcssa.i.i
  %41 = fcmp ogt float %40, %4
  br i1 %41, label %42, label %54

42:                                               ; preds = %_ZNK5faiss12_GLOBAL__N_110DCTemplateINS0_17QuantizerTemplateINS0_9Codec4bitELb1ELi1EEENS0_12SimilarityIPILi1EEELi1EE13query_to_codeEPKh.exit
  %43 = load i8, ptr %12, align 1
  %44 = and i8 %43, 1
  %.not = icmp eq i8 %44, 0
  br i1 %.not, label %49, label %45

45:                                               ; preds = %42
  %46 = load i64, ptr %13, align 8
  %47 = shl i64 %46, 32
  %48 = or i64 %47, %.01315
  br label %52

49:                                               ; preds = %42
  %50 = getelementptr inbounds i64, ptr %3, i64 %.01315
  %51 = load i64, ptr %50, align 8
  br label %52

52:                                               ; preds = %49, %45
  %53 = phi i64 [ %48, %45 ], [ %51, %49 ]
  tail call void @_ZN5faiss16RangeQueryResult3addEfl(ptr noundef nonnull align 8 dereferenceable(24) %5, float noundef %40, i64 noundef %53)
  br label %54

54:                                               ; preds = %_ZNK5faiss12_GLOBAL__N_110DCTemplateINS0_17QuantizerTemplateINS0_9Codec4bitELb1ELi1EEENS0_12SimilarityIPILi1EEELi1EE13query_to_codeEPKh.exit, %52
  %55 = add nuw i64 %.01315, 1
  %56 = load i64, ptr %14, align 8
  %57 = getelementptr inbounds i8, ptr %.017, i64 %56
  %exitcond.not = icmp eq i64 %55, %1
  br i1 %exitcond.not, label %._crit_edge, label %15, !llvm.loop !137

._crit_edge:                                      ; preds = %54, %6
  ret void
}